target datalayout = "e-m:e-p270:32:32-p271:32:32-p272:64:64-i64:64-i128:128-f80:128-n8:16:32:64-S128"
target triple = "x86_64-pc-linux-gnu"

%struct.XIEventMask = type { i32, i32, ptr }
%struct.SDL_VideoDevice = type { ptr, ptr, ptr, ptr, ptr, ptr, ptr, ptr, ptr, ptr, ptr, ptr, ptr, ptr, ptr, ptr, ptr, ptr, ptr, ptr, ptr, ptr, ptr, ptr, ptr, ptr, ptr, ptr, ptr, ptr, ptr, ptr, ptr, ptr, ptr, ptr, ptr, ptr, ptr, ptr, ptr, ptr, ptr, ptr, ptr, ptr, ptr, ptr, ptr, ptr, ptr, ptr, ptr, ptr, ptr, ptr, ptr, ptr, ptr, ptr, ptr, ptr, ptr, ptr, ptr, ptr, ptr, ptr, ptr, ptr, ptr, ptr, ptr, ptr, ptr, ptr, ptr, ptr, ptr, ptr, ptr, ptr, ptr, ptr, ptr, ptr, ptr, ptr, ptr, ptr, ptr, ptr, ptr, ptr, ptr, ptr, ptr, i64, i8, i8, i8, ptr, i32, ptr, %struct.SDL_Rect, ptr, ptr, i32, ptr, ptr, ptr, ptr, i64, ptr, i8, i32, i32, %struct.anon, ptr, ptr, ptr, ptr, ptr, ptr, %struct.SDL_AtomicInt, %struct.SDL_AtomicInt, i8, %struct.anon.0, ptr, ptr, ptr, ptr, ptr }
%struct.SDL_Rect = type { i32, i32, i32, i32 }
%struct.anon = type { i32, i32, i32, i32, i32, i32, i32, i32, i32, i32, i32, i32, i32, i32, i32, i32, i32, i32, i32, i32, i32, i32, i32, i32, i32, i32, i32, i32, i32, [256 x i8], ptr }
%struct.SDL_AtomicInt = type { i32 }
%struct.anon.0 = type { ptr, ptr, i32, [256 x i8], ptr }
%struct.SDL_VideoData = type { ptr, ptr, i32, ptr, i64, i32, ptr, i32, i64, i64, %struct.X11_ClipboardData, %struct.X11_ClipboardData, ptr, i64, %struct.X11_SettingsData, i8, %struct.anon.1, [256 x i32], i8, i8, i8, i64, i8, %struct.SDL_Point, i32, ptr, i32, i8, i32, %struct.anon.2, i8, i64, ptr, ptr, i8, i8, i8 }
%struct.X11_ClipboardData = type { ptr, ptr, ptr, i64, i32 }
%struct.X11_SettingsData = type { ptr }
%struct.anon.1 = type { i64, i64, i64, i64, i64, i64, i64, i64, i64, i64, i64, i64, i64, i64, i64, i64, i64, i64, i64, i64, i64, i64, i64, i64, i64, i64, i64, i64, i64, i64, i64, i64, i64, i64, i64, i64, i64, i64, i64, i64, i64, i64, i64, i64, i64, i64, i64, i64, i64, i64, i64, i64, i64 }
%struct.SDL_Point = type { i32, i32 }
%struct.anon.2 = type { ptr, i32, i32, i32, i16, i32, i32 }
%struct.anon.4 = type { ptr, ptr, i32, i32, i32, i32, ptr, i64, i64, i64, i32, ptr, i32, i32, i32, i32, i32, ptr, i32, i32, ptr, ptr, i32, i64, i64, ptr, ptr, ptr, ptr, i32, ptr, ptr, ptr, i32, i32, ptr, i64, i64, i32, i32, ptr, ptr, i32, ptr }
%struct.Screen = type { ptr, ptr, i64, i32, i32, i32, i32, i32, ptr, i32, ptr, ptr, i64, i64, i64, i32, i32, i32, i32, i64 }

@.str = private unnamed_addr constant [22 x i8] c"SDL_VIDEO_X11_XINPUT2\00", align 1
@SDL_X11_HAVE_XINPUT2 = external global i32, align 4
@X11_XQueryExtension = external global ptr, align 8
@.str.1 = private unnamed_addr constant [16 x i8] c"XInputExtension\00", align 1
@xinput2_opcode = internal global i32 0, align 4
@xinput2_initialized = internal global i8 0, align 1
@xinput2_multitouch_supported = internal global i8 0, align 1
@X11_XISelectEvents = external global ptr, align 8
@X11_XIQueryVersion = external global ptr, align 8

; Function Attrs: nounwind uwtable
define hidden zeroext i1 @X11_Xinput2IsMultitouchSupported() #0 {
  %1 = load i8, ptr @xinput2_initialized, align 1, !range !3, !noundef !4
  %2 = trunc i8 %1 to i1
  br i1 %2, label %3, label %6

3:                                                ; preds = %0
  %4 = load i8, ptr @xinput2_multitouch_supported, align 1, !range !3, !noundef !4
  %5 = trunc i8 %4 to i1
  br label %6

6:                                                ; preds = %3, %0
  %7 = phi i1 [ false, %0 ], [ %5, %3 ]
  ret i1 %7
}

; Function Attrs: nounwind uwtable
define internal zeroext i1 @xinput2_version_atleast(i32 noundef %0, i32 noundef %1, i32 noundef %2) #0 {
  %4 = alloca i32, align 4
  %5 = alloca i32, align 4
  %6 = alloca i32, align 4
  store i32 %0, ptr %4, align 4
  store i32 %1, ptr %5, align 4
  store i32 %2, ptr %6, align 4
  %7 = load i32, ptr %4, align 4
  %8 = load i32, ptr %5, align 4
  %9 = mul nsw i32 %8, 1000
  %10 = load i32, ptr %6, align 4
  %11 = add nsw i32 %9, %10
  %12 = icmp sge i32 %7, %11
  ret i1 %12
}

; Function Attrs: nounwind uwtable
define internal i32 @query_xinput2_version(ptr noundef %0, i32 noundef %1, i32 noundef %2) #0 {
  %4 = alloca ptr, align 8
  %5 = alloca i32, align 4
  %6 = alloca i32, align 4
  store ptr %0, ptr %4, align 8
  store i32 %1, ptr %5, align 4
  store i32 %2, ptr %6, align 4
  %7 = load ptr, ptr @X11_XIQueryVersion, align 8
  %8 = load ptr, ptr %4, align 8
  %9 = call i32 %7(ptr noundef %8, ptr noundef %5, ptr noundef %6)
  %10 = load i32, ptr %5, align 4
  %11 = mul nsw i32 %10, 1000
  %12 = load i32, ptr %6, align 4
  %13 = add nsw i32 %11, %12
  ret i32 %13
}

; Function Attrs: nounwind uwtable
define hidden zeroext i1 @X11_InitXinput2(ptr noundef %0) #0 {
  %2 = alloca i1, align 1
  %3 = alloca ptr, align 8
  %4 = alloca ptr, align 8
  %5 = alloca i32, align 4
  %6 = alloca %struct.XIEventMask, align 8
  %7 = alloca [4 x i8], align 1
  %8 = alloca i32, align 4
  %9 = alloca i32, align 4
  %10 = alloca i32, align 4
  store ptr %0, ptr %3, align 8
  call void @llvm.lifetime.start.p0(i64 8, ptr %4) #6
  %11 = load ptr, ptr %3, align 8
  %12 = getelementptr inbounds nuw %struct.SDL_VideoDevice, ptr %11, i32 0, i32 128
  %13 = load ptr, ptr %12, align 8
  store ptr %13, ptr %4, align 8
  call void @llvm.lifetime.start.p0(i64 4, ptr %5) #6
  store i32 0, ptr %5, align 4
  call void @llvm.lifetime.start.p0(i64 16, ptr %6) #6
  call void @llvm.lifetime.start.p0(i64 4, ptr %7) #6
  call void @llvm.memset.p0.i64(ptr align 1 %7, i8 0, i64 4, i1 false)
  call void @llvm.lifetime.start.p0(i64 4, ptr %8) #6
  call void @llvm.lifetime.start.p0(i64 4, ptr %9) #6
  %14 = call zeroext i1 @SDL_GetHintBoolean_REAL(ptr noundef @.str, i1 noundef zeroext true)
  br i1 %14, label %16, label %15

15:                                               ; preds = %1
  store i1 false, ptr %2, align 1
  store i32 1, ptr %10, align 4
  br label %133

16:                                               ; preds = %1
  %17 = load i32, ptr @SDL_X11_HAVE_XINPUT2, align 4
  %18 = icmp ne i32 %17, 0
  br i1 %18, label %19, label %26

19:                                               ; preds = %16
  %20 = load ptr, ptr @X11_XQueryExtension, align 8
  %21 = load ptr, ptr %4, align 8
  %22 = getelementptr inbounds nuw %struct.SDL_VideoData, ptr %21, i32 0, i32 0
  %23 = load ptr, ptr %22, align 8
  %24 = call i32 %20(ptr noundef %23, ptr noundef @.str.1, ptr noundef @xinput2_opcode, ptr noundef %8, ptr noundef %9)
  %25 = icmp ne i32 %24, 0
  br i1 %25, label %27, label %26

26:                                               ; preds = %19, %16
  store i1 false, ptr %2, align 1
  store i32 1, ptr %10, align 4
  br label %133

27:                                               ; preds = %19
  %28 = load ptr, ptr %4, align 8
  %29 = getelementptr inbounds nuw %struct.SDL_VideoData, ptr %28, i32 0, i32 0
  %30 = load ptr, ptr %29, align 8
  %31 = call i32 @query_xinput2_version(ptr noundef %30, i32 noundef 2, i32 noundef 2)
  store i32 %31, ptr %5, align 4
  %32 = load i32, ptr %5, align 4
  %33 = call zeroext i1 @xinput2_version_atleast(i32 noundef %32, i32 noundef 2, i32 noundef 0)
  br i1 %33, label %35, label %34

34:                                               ; preds = %27
  store i1 false, ptr %2, align 1
  store i32 1, ptr %10, align 4
  br label %133

35:                                               ; preds = %27
  store i8 1, ptr @xinput2_initialized, align 1
  %36 = load i32, ptr %5, align 4
  %37 = call zeroext i1 @xinput2_version_atleast(i32 noundef %36, i32 noundef 2, i32 noundef 2)
  %38 = zext i1 %37 to i8
  store i8 %38, ptr @xinput2_multitouch_supported, align 1
  call void @llvm.memset.p0.i64(ptr align 8 %6, i8 0, i64 16, i1 false)
  %39 = getelementptr inbounds [4 x i8], ptr %7, i64 0, i64 0
  call void @llvm.memset.p0.i64(ptr align 1 %39, i8 0, i64 4, i1 false)
  %40 = getelementptr inbounds nuw %struct.XIEventMask, ptr %6, i32 0, i32 0
  store i32 1, ptr %40, align 8
  %41 = getelementptr inbounds nuw %struct.XIEventMask, ptr %6, i32 0, i32 1
  store i32 4, ptr %41, align 4
  %42 = getelementptr inbounds [4 x i8], ptr %7, i64 0, i64 0
  %43 = getelementptr inbounds nuw %struct.XIEventMask, ptr %6, i32 0, i32 2
  store ptr %42, ptr %43, align 8
  %44 = getelementptr inbounds [4 x i8], ptr %7, i64 0, i64 0
  %45 = getelementptr inbounds i8, ptr %44, i64 2
  %46 = load i8, ptr %45, align 1
  %47 = zext i8 %46 to i32
  %48 = or i32 %47, 2
  %49 = trunc i32 %48 to i8
  store i8 %49, ptr %45, align 1
  %50 = getelementptr inbounds [4 x i8], ptr %7, i64 0, i64 0
  %51 = getelementptr inbounds i8, ptr %50, i64 1
  %52 = load i8, ptr %51, align 1
  %53 = zext i8 %52 to i32
  %54 = or i32 %53, 128
  %55 = trunc i32 %54 to i8
  store i8 %55, ptr %51, align 1
  %56 = getelementptr inbounds [4 x i8], ptr %7, i64 0, i64 0
  %57 = getelementptr inbounds i8, ptr %56, i64 2
  %58 = load i8, ptr %57, align 1
  %59 = zext i8 %58 to i32
  %60 = or i32 %59, 1
  %61 = trunc i32 %60 to i8
  store i8 %61, ptr %57, align 1
  %62 = call zeroext i1 @X11_Xinput2IsMultitouchSupported()
  br i1 %62, label %63, label %82

63:                                               ; preds = %35
  %64 = getelementptr inbounds [4 x i8], ptr %7, i64 0, i64 0
  %65 = getelementptr inbounds i8, ptr %64, i64 2
  %66 = load i8, ptr %65, align 1
  %67 = zext i8 %66 to i32
  %68 = or i32 %67, 64
  %69 = trunc i32 %68 to i8
  store i8 %69, ptr %65, align 1
  %70 = getelementptr inbounds [4 x i8], ptr %7, i64 0, i64 0
  %71 = getelementptr inbounds i8, ptr %70, i64 2
  %72 = load i8, ptr %71, align 1
  %73 = zext i8 %72 to i32
  %74 = or i32 %73, 128
  %75 = trunc i32 %74 to i8
  store i8 %75, ptr %71, align 1
  %76 = getelementptr inbounds [4 x i8], ptr %7, i64 0, i64 0
  %77 = getelementptr inbounds i8, ptr %76, i64 3
  %78 = load i8, ptr %77, align 1
  %79 = zext i8 %78 to i32
  %80 = or i32 %79, 1
  %81 = trunc i32 %80 to i8
  store i8 %81, ptr %77, align 1
  br label %82

82:                                               ; preds = %63, %35
  %83 = load ptr, ptr @X11_XISelectEvents, align 8
  %84 = load ptr, ptr %4, align 8
  %85 = getelementptr inbounds nuw %struct.SDL_VideoData, ptr %84, i32 0, i32 0
  %86 = load ptr, ptr %85, align 8
  %87 = load ptr, ptr %4, align 8
  %88 = getelementptr inbounds nuw %struct.SDL_VideoData, ptr %87, i32 0, i32 0
  %89 = load ptr, ptr %88, align 8
  %90 = getelementptr inbounds nuw %struct.anon.4, ptr %89, i32 0, i32 35
  %91 = load ptr, ptr %90, align 8
  %92 = load ptr, ptr %4, align 8
  %93 = getelementptr inbounds nuw %struct.SDL_VideoData, ptr %92, i32 0, i32 0
  %94 = load ptr, ptr %93, align 8
  %95 = getelementptr inbounds nuw %struct.anon.4, ptr %94, i32 0, i32 33
  %96 = load i32, ptr %95, align 8
  %97 = sext i32 %96 to i64
  %98 = getelementptr inbounds %struct.Screen, ptr %91, i64 %97
  %99 = getelementptr inbounds nuw %struct.Screen, ptr %98, i32 0, i32 2
  %100 = load i64, ptr %99, align 8
  %101 = call i32 %83(ptr noundef %86, i64 noundef %100, ptr noundef %6, i32 noundef 1)
  call void @llvm.memset.p0.i64(ptr align 8 %6, i8 0, i64 16, i1 false)
  %102 = getelementptr inbounds [4 x i8], ptr %7, i64 0, i64 0
  call void @llvm.memset.p0.i64(ptr align 1 %102, i8 0, i64 4, i1 false)
  %103 = getelementptr inbounds nuw %struct.XIEventMask, ptr %6, i32 0, i32 0
  store i32 0, ptr %103, align 8
  %104 = getelementptr inbounds nuw %struct.XIEventMask, ptr %6, i32 0, i32 1
  store i32 4, ptr %104, align 4
  %105 = getelementptr inbounds [4 x i8], ptr %7, i64 0, i64 0
  %106 = getelementptr inbounds nuw %struct.XIEventMask, ptr %6, i32 0, i32 2
  store ptr %105, ptr %106, align 8
  %107 = getelementptr inbounds [4 x i8], ptr %7, i64 0, i64 0
  %108 = getelementptr inbounds i8, ptr %107, i64 1
  %109 = load i8, ptr %108, align 1
  %110 = zext i8 %109 to i32
  %111 = or i32 %110, 8
  %112 = trunc i32 %111 to i8
  store i8 %112, ptr %108, align 1
  %113 = load ptr, ptr @X11_XISelectEvents, align 8
  %114 = load ptr, ptr %4, align 8
  %115 = getelementptr inbounds nuw %struct.SDL_VideoData, ptr %114, i32 0, i32 0
  %116 = load ptr, ptr %115, align 8
  %117 = load ptr, ptr %4, align 8
  %118 = getelementptr inbounds nuw %struct.SDL_VideoData, ptr %117, i32 0, i32 0
  %119 = load ptr, ptr %118, align 8
  %120 = getelementptr inbounds nuw %struct.anon.4, ptr %119, i32 0, i32 35
  %121 = load ptr, ptr %120, align 8
  %122 = load ptr, ptr %4, align 8
  %123 = getelementptr inbounds nuw %struct.SDL_VideoData, ptr %122, i32 0, i32 0
  %124 = load ptr, ptr %123, align 8
  %125 = getelementptr inbounds nuw %struct.anon.4, ptr %124, i32 0, i32 33
  %126 = load i32, ptr %125, align 8
  %127 = sext i32 %126 to i64
  %128 = getelementptr inbounds %struct.Screen, ptr %121, i64 %127
  %129 = getelementptr inbounds nuw %struct.Screen, ptr %128, i32 0, i32 2
  %130 = load i64, ptr %129, align 8
  %131 = call i32 %113(ptr noundef %116, i64 noundef %130, ptr noundef %6, i32 noundef 1)
  %132 = load ptr, ptr %3, align 8
  call void @X11_Xinput2UpdateDevices(ptr noundef %132, i1 noundef zeroext true)
  store i1 true, ptr %2, align 1
  store i32 1, ptr %10, align 4
  br label %133

133:                                              ; preds = %82, %34, %26, %15
  call void @llvm.lifetime.end.p0(i64 4, ptr %9) #6
  call void @llvm.lifetime.end.p0(i64 4, ptr %8) #6
  call void @llvm.lifetime.end.p0(i64 4, ptr %7) #6
  call void @llvm.lifetime.end.p0(i64 16, ptr %6) #6
  call void @llvm.lifetime.end.p0(i64 4, ptr %5) #6
  call void @llvm.lifetime.end.p0(i64 8, ptr %4) #6
  %134 = load i1, ptr %2, align 1
  ret i1 %134
}