; Function Attrs: nounwind uwtable
define hidden noundef zeroext i1 @X11_InitXinput2(ptr noundef readonly captures(none) %0) local_unnamed_addr #0 {
  %2 = alloca i32, align 4
  %3 = alloca i32, align 4
  %4 = alloca %struct.XIEventMask, align 8
  %5 = alloca [4 x i8], align 4
  %6 = alloca i32, align 4
  %7 = alloca i32, align 4
  %8 = getelementptr inbounds nuw i8, ptr %0, i64 1656
  %9 = load ptr, ptr %8, align 8
  call void @llvm.lifetime.start.p0(i64 16, ptr nonnull %4) #8
  call void @llvm.lifetime.start.p0(i64 4, ptr nonnull %5) #8
  call void @llvm.lifetime.start.p0(i64 4, ptr nonnull %6) #8
  call void @llvm.lifetime.start.p0(i64 4, ptr nonnull %7) #8
  %10 = tail call zeroext i1 @SDL_GetHintBoolean_REAL(ptr noundef nonnull @.str, i1 noundef zeroext true) #8
  %11 = load i32, ptr @SDL_X11_HAVE_XINPUT2, align 4
  %.not = icmp ne i32 %11, 0
  %or.cond.not = select i1 %10, i1 %.not, i1 false
  br i1 %or.cond.not, label %12, label %54

12:                                               ; preds = %1
  %13 = load ptr, ptr @X11_XQueryExtension, align 8
  %14 = load ptr, ptr %9, align 8
  %15 = call i32 %13(ptr noundef %14, ptr noundef nonnull @.str.1, ptr noundef nonnull @xinput2_opcode, ptr noundef nonnull %6, ptr noundef nonnull %7) #8
  %.not12 = icmp eq i32 %15, 0
  br i1 %.not12, label %54, label %16

16:                                               ; preds = %12
  %17 = load ptr, ptr %9, align 8
  call void @llvm.lifetime.start.p0(i64 4, ptr nonnull %2)
  call void @llvm.lifetime.start.p0(i64 4, ptr nonnull %3)
  store i32 2, ptr %2, align 4
  store i32 2, ptr %3, align 4
  %18 = load ptr, ptr @X11_XIQueryVersion, align 8
  %19 = call i32 %18(ptr noundef %17, ptr noundef nonnull %2, ptr noundef nonnull %3) #8
  %20 = load i32, ptr %2, align 4
  %21 = mul nsw i32 %20, 1000
  %22 = load i32, ptr %3, align 4
  %23 = add nsw i32 %21, %22
  call void @llvm.lifetime.end.p0(i64 4, ptr nonnull %2)
  call void @llvm.lifetime.end.p0(i64 4, ptr nonnull %3)
  %24 = icmp sgt i32 %23, 1999
  br i1 %24, label %25, label %54

25:                                               ; preds = %16
  store i1 true, ptr @xinput2_initialized, align 1
  %26 = icmp samesign ugt i32 %23, 2001
  %27 = zext i1 %26 to i8
  store i8 %27, ptr @xinput2_multitouch_supported, align 1
  store i32 229376, ptr %5, align 4
  store i32 1, ptr %4, align 8
  %28 = getelementptr inbounds nuw i8, ptr %4, i64 4
  store i32 4, ptr %28, align 4
  %29 = getelementptr inbounds nuw i8, ptr %4, i64 8
  store ptr %5, ptr %29, align 8
  br i1 %26, label %30, label %33

30:                                               ; preds = %25
  %31 = getelementptr inbounds nuw i8, ptr %5, i64 2
  store i8 -61, ptr %31, align 2
  %32 = getelementptr inbounds nuw i8, ptr %5, i64 3
  store i8 1, ptr %32, align 1
  br label %33

33:                                               ; preds = %30, %25
  %34 = load ptr, ptr @X11_XISelectEvents, align 8
  %35 = load ptr, ptr %9, align 8
  %36 = getelementptr inbounds nuw i8, ptr %35, i64 232
  %37 = load ptr, ptr %36, align 8
  %38 = getelementptr inbounds nuw i8, ptr %35, i64 224
  %39 = load i32, ptr %38, align 8
  %40 = sext i32 %39 to i64
  %41 = getelementptr inbounds %struct.Screen, ptr %37, i64 %40, i32 2
  %42 = load i64, ptr %41, align 8
  %43 = call i32 %34(ptr noundef %35, i64 noundef %42, ptr noundef nonnull %4, i32 noundef 1) #8
  store i32 2048, ptr %5, align 4
  store i32 0, ptr %4, align 8
  store i32 4, ptr %28, align 4
  store ptr %5, ptr %29, align 8
  %44 = load ptr, ptr @X11_XISelectEvents, align 8
  %45 = load ptr, ptr %9, align 8
  %46 = getelementptr inbounds nuw i8, ptr %45, i64 232
  %47 = load ptr, ptr %46, align 8
  %48 = getelementptr inbounds nuw i8, ptr %45, i64 224
  %49 = load i32, ptr %48, align 8
  %50 = sext i32 %49 to i64
  %51 = getelementptr inbounds %struct.Screen, ptr %47, i64 %50, i32 2
  %52 = load i64, ptr %51, align 8
  %53 = call i32 %44(ptr noundef %45, i64 noundef %52, ptr noundef nonnull %4, i32 noundef 1) #8
  call void @X11_Xinput2UpdateDevices(ptr noundef nonnull %0, i1 noundef zeroext true)
  br label %54

54:                                               ; preds = %16, %12, %1, %33
  %.0 = phi i1 [ true, %33 ], [ false, %1 ], [ false, %12 ], [ false, %16 ]
  call void @llvm.lifetime.end.p0(i64 4, ptr nonnull %7) #8
  call void @llvm.lifetime.end.p0(i64 4, ptr nonnull %6) #8
  call void @llvm.lifetime.end.p0(i64 4, ptr nonnull %5) #8
  call void @llvm.lifetime.end.p0(i64 16, ptr nonnull %4) #8
  ret i1 %.0
}